; Function Attrs: nounwind uwtable
define dso_local void @quote_two_c_style(ptr noundef %0, ptr noundef %1, ptr noundef %2, i32 noundef %3) local_unnamed_addr #0 {
  %5 = and i32 %3, 1
  %.not = icmp eq i32 %5, 0
  %6 = load i32, ptr @quote_path_fully, align 4
  br label %.preheader.i.i.preheader

.preheader.i.i.preheader:                         ; preds = %4, %17
  %.089.i = phi i64 [ 0, %4 ], [ %24, %17 ]
  %.088.i = phi ptr [ %1, %4 ], [ %22, %17 ]
  br label %.preheader.i.i

.preheader.i.i:                                   ; preds = %.preheader.i.i.preheader, %.preheader.i.i
  %.0.i.i = phi i64 [ %15, %.preheader.i.i ], [ 0, %.preheader.i.i.preheader ]
  %7 = getelementptr inbounds nuw i8, ptr %.088.i, i64 %.0.i.i
  %8 = load i8, ptr %7, align 1, !tbaa !13
  %9 = zext i8 %8 to i64
  %10 = getelementptr inbounds nuw [256 x i8], ptr @cq_lookup, i64 0, i64 %9
  %11 = load i8, ptr %10, align 1, !tbaa !13
  %12 = sext i8 %11 to i32
  %13 = add nsw i32 %6, %12
  %14 = icmp slt i32 %13, 1
  %15 = add i64 %.0.i.i, 1
  br i1 %14, label %.preheader.i.i, label %next_quote_pos.exit.i, !llvm.loop !26

next_quote_pos.exit.i:                            ; preds = %.preheader.i.i
  %16 = icmp eq i64 %.0.i.i, -1
  %.not110.i = icmp eq i8 %8, 0
  %or.cond98 = or i1 %16, %.not110.i
  br i1 %or.cond98, label %next_quote_pos.exit.thread.i, label %17

17:                                               ; preds = %next_quote_pos.exit.i
  %18 = icmp eq ptr %.088.i, %1
  %19 = zext i1 %18 to i64
  %spec.select = add i64 %.089.i, %19
  %20 = add i64 %spec.select, %.0.i.i
  %21 = getelementptr inbounds nuw i8, ptr %.088.i, i64 %.0.i.i
  %22 = getelementptr inbounds nuw i8, ptr %21, i64 1
  %23 = icmp sgt i8 %11, 31
  %.sink.i = select i1 %23, i64 2, i64 4
  %24 = add i64 %20, %.sink.i
  br label %.preheader.i.i.preheader

next_quote_pos.exit.thread.i:                     ; preds = %next_quote_pos.exit.i
  %25 = add i64 %.0.i.i, %.089.i
  %.not52 = icmp eq ptr %.088.i, %1
  %.not1453 = icmp eq i64 %25, -1
  %.not14 = select i1 %.not52, i1 true, i1 %.not1453
  br i1 %.not14, label %.preheader.i.i48.preheader, label %45

.preheader.i.i48.preheader:                       ; preds = %next_quote_pos.exit.thread.i, %36
  %.089.i29 = phi i64 [ %43, %36 ], [ 0, %next_quote_pos.exit.thread.i ]
  %.088.i30 = phi ptr [ %41, %36 ], [ %2, %next_quote_pos.exit.thread.i ]
  br label %.preheader.i.i48

.preheader.i.i48:                                 ; preds = %.preheader.i.i48.preheader, %.preheader.i.i48
  %.0.i.i49 = phi i64 [ %34, %.preheader.i.i48 ], [ 0, %.preheader.i.i48.preheader ]
  %26 = getelementptr inbounds nuw i8, ptr %.088.i30, i64 %.0.i.i49
  %27 = load i8, ptr %26, align 1, !tbaa !13
  %28 = zext i8 %27 to i64
  %29 = getelementptr inbounds nuw [256 x i8], ptr @cq_lookup, i64 0, i64 %28
  %30 = load i8, ptr %29, align 1, !tbaa !13
  %31 = sext i8 %30 to i32
  %32 = add nsw i32 %6, %31
  %33 = icmp slt i32 %32, 1
  %34 = add i64 %.0.i.i49, 1
  br i1 %33, label %.preheader.i.i48, label %next_quote_pos.exit.i35, !llvm.loop !26

next_quote_pos.exit.i35:                          ; preds = %.preheader.i.i48
  %35 = icmp eq i64 %.0.i.i49, -1
  %.not110.i37 = icmp eq i8 %27, 0
  %or.cond = or i1 %35, %.not110.i37
  br i1 %or.cond, label %next_quote_pos.exit.thread.i43, label %36

36:                                               ; preds = %next_quote_pos.exit.i35
  %37 = icmp eq ptr %.088.i30, %2
  %38 = zext i1 %37 to i64
  %spec.select51 = add i64 %.089.i29, %38
  %39 = add i64 %spec.select51, %.0.i.i49
  %40 = getelementptr inbounds nuw i8, ptr %.088.i30, i64 %.0.i.i49
  %41 = getelementptr inbounds nuw i8, ptr %40, i64 1
  %42 = icmp sgt i8 %30, 31
  %.sink.i42 = select i1 %42, i64 2, i64 4
  %43 = add i64 %39, %.sink.i42
  br label %.preheader.i.i48.preheader

next_quote_pos.exit.thread.i43:                   ; preds = %next_quote_pos.exit.i35
  %44 = add i64 %.0.i.i49, %.089.i29
  %.not54 = icmp eq ptr %.088.i30, %2
  %.not1555 = icmp eq i64 %44, -1
  %.not15 = select i1 %.not54, i1 true, i1 %.not1555
  br i1 %.not15, label %68, label %45

45:                                               ; preds = %next_quote_pos.exit.thread.i43, %next_quote_pos.exit.thread.i
  br i1 %.not, label %46, label %.critedge

46:                                               ; preds = %45
  %47 = load i64, ptr %0, align 8, !tbaa !11
  %.not.i.i = icmp eq i64 %47, 0
  br i1 %.not.i.i, label %strbuf_avail.exit.thread.i, label %strbuf_avail.exit.i

strbuf_avail.exit.i:                              ; preds = %46
  %48 = getelementptr inbounds nuw i8, ptr %0, i64 8
  %49 = load i64, ptr %48, align 8, !tbaa !12
  %.neg.i = add i64 %49, 1
  %.not.i = icmp eq i64 %47, %.neg.i
  br i1 %.not.i, label %strbuf_avail.exit.thread.i, label %strbuf_addch.exit

strbuf_avail.exit.thread.i:                       ; preds = %strbuf_avail.exit.i, %46
  tail call void @strbuf_grow(ptr noundef nonnull %0, i64 noundef 1) #12
  %.phi.trans.insert.i = getelementptr inbounds nuw i8, ptr %0, i64 8
  %.pre.i = load i64, ptr %.phi.trans.insert.i, align 8, !tbaa !12
  %.pre7.i = add i64 %.pre.i, 1
  br label %strbuf_addch.exit

strbuf_addch.exit:                                ; preds = %strbuf_avail.exit.i, %strbuf_avail.exit.thread.i
  %.pre-phi.i = phi i64 [ %.pre7.i, %strbuf_avail.exit.thread.i ], [ %.neg.i, %strbuf_avail.exit.i ]
  %50 = phi i64 [ %.pre.i, %strbuf_avail.exit.thread.i ], [ %49, %strbuf_avail.exit.i ]
  %51 = getelementptr inbounds nuw i8, ptr %0, i64 16
  %52 = load ptr, ptr %51, align 8, !tbaa !4
  %53 = getelementptr inbounds nuw i8, ptr %0, i64 8
  store i64 %.pre-phi.i, ptr %53, align 8, !tbaa !12
  %54 = getelementptr inbounds nuw i8, ptr %52, i64 %50
  store i8 34, ptr %54, align 1, !tbaa !13
  %55 = load ptr, ptr %51, align 8, !tbaa !4
  %56 = load i64, ptr %53, align 8, !tbaa !12
  %57 = getelementptr inbounds nuw i8, ptr %55, i64 %56
  store i8 0, ptr %57, align 1, !tbaa !13
  %58 = tail call fastcc i64 @quote_c_style_counted(ptr noundef %1, i64 noundef -1, ptr noundef nonnull %0, ptr noundef null, i32 noundef 1)
  %59 = tail call fastcc i64 @quote_c_style_counted(ptr noundef %2, i64 noundef -1, ptr noundef nonnull %0, ptr noundef null, i32 noundef 1)
  %60 = load i64, ptr %0, align 8, !tbaa !11
  %.not.i.i16 = icmp eq i64 %60, 0
  br i1 %.not.i.i16, label %strbuf_avail.exit.thread.i21, label %strbuf_avail.exit.i17

strbuf_avail.exit.i17:                            ; preds = %strbuf_addch.exit
  %61 = load i64, ptr %53, align 8, !tbaa !12
  %.neg.i18 = add i64 %61, 1
  %.not.i19 = icmp eq i64 %60, %.neg.i18
  br i1 %.not.i19, label %strbuf_avail.exit.thread.i21, label %strbuf_addch.exit25

strbuf_avail.exit.thread.i21:                     ; preds = %strbuf_avail.exit.i17, %strbuf_addch.exit
  tail call void @strbuf_grow(ptr noundef nonnull %0, i64 noundef 1) #12
  %.pre.i23 = load i64, ptr %53, align 8, !tbaa !12
  %.pre7.i24 = add i64 %.pre.i23, 1
  br label %strbuf_addch.exit25

strbuf_addch.exit25:                              ; preds = %strbuf_avail.exit.i17, %strbuf_avail.exit.thread.i21
  %.pre-phi.i20 = phi i64 [ %.pre7.i24, %strbuf_avail.exit.thread.i21 ], [ %.neg.i18, %strbuf_avail.exit.i17 ]
  %62 = phi i64 [ %.pre.i23, %strbuf_avail.exit.thread.i21 ], [ %61, %strbuf_avail.exit.i17 ]
  %63 = load ptr, ptr %51, align 8, !tbaa !4
  store i64 %.pre-phi.i20, ptr %53, align 8, !tbaa !12
  %64 = getelementptr inbounds nuw i8, ptr %63, i64 %62
  store i8 34, ptr %64, align 1, !tbaa !13
  %65 = load ptr, ptr %51, align 8, !tbaa !4
  %66 = load i64, ptr %53, align 8, !tbaa !12
  %67 = getelementptr inbounds nuw i8, ptr %65, i64 %66
  store i8 0, ptr %67, align 1, !tbaa !13
  br label %73

68:                                               ; preds = %next_quote_pos.exit.thread.i43
  %69 = tail call i64 @strlen(ptr noundef nonnull dereferenceable(1) %1) #13
  tail call void @strbuf_add(ptr noundef %0, ptr noundef nonnull %1, i64 noundef %69) #12
  %70 = tail call i64 @strlen(ptr noundef nonnull dereferenceable(1) %2) #13
  tail call void @strbuf_add(ptr noundef %0, ptr noundef nonnull %2, i64 noundef %70) #12
  br label %73

.critedge:                                        ; preds = %45
  %71 = tail call fastcc i64 @quote_c_style_counted(ptr noundef %1, i64 noundef -1, ptr noundef %0, ptr noundef null, i32 noundef 1)
  %72 = tail call fastcc i64 @quote_c_style_counted(ptr noundef %2, i64 noundef -1, ptr noundef %0, ptr noundef null, i32 noundef 1)
  br label %73

73:                                               ; preds = %.critedge, %strbuf_addch.exit25, %68
  ret void
}